; Function Attrs: mustprogress nofree norecurse nounwind willreturn uwtable
define void @_ZN10open_spiel10algorithms16CFRCurrentPolicyC2ERKSt13unordered_mapINSt7__cxx1112basic_stringIcSt11char_traitsIcESaIcEEENS0_18CFRInfoStateValuesESt4hashIS8_ESt8equal_toIS8_ESaISt4pairIKS8_S9_EEESt10shared_ptrINS_6PolicyEE(ptr nocapture noundef nonnull writeonly align 8 dereferenceable(32) %0, ptr noundef nonnull align 8 dereferenceable(56) %1, ptr nocapture noundef readonly %2) unnamed_addr #3 align 2 personality ptr @__gxx_personality_v0 {
  store ptr getelementptr inbounds inrange(-16, 80) (i8, ptr @_ZTVN10open_spiel10algorithms16CFRCurrentPolicyE, i64 16), ptr %0, align 8
  %4 = getelementptr inbounds nuw i8, ptr %0, i64 8
  store ptr %1, ptr %4, align 8
  %5 = getelementptr inbounds nuw i8, ptr %0, i64 16
  %6 = load ptr, ptr %2, align 8
  store ptr %6, ptr %5, align 8
  %7 = getelementptr inbounds i8, ptr %0, i64 24
  %8 = getelementptr inbounds nuw i8, ptr %2, i64 8
  %9 = load ptr, ptr %8, align 8
  store ptr %9, ptr %7, align 8
  %.not.i.i.i = icmp eq ptr %9, null
  br i1 %.not.i.i.i, label %_ZNSt10shared_ptrIN10open_spiel6PolicyEEC2ERKS2_.exit, label %10

10:                                               ; preds = %3
  %11 = getelementptr inbounds nuw i8, ptr %9, i64 8
  %12 = load i8, ptr @__libc_single_threaded, align 1
  %.not.i.i.i.i = icmp eq i8 %12, 0
  br i1 %.not.i.i.i.i, label %16, label %13

13:                                               ; preds = %10
  %14 = load i32, ptr %11, align 4
  %15 = add nsw i32 %14, 1
  store i32 %15, ptr %11, align 4
  br label %_ZNSt10shared_ptrIN10open_spiel6PolicyEEC2ERKS2_.exit

16:                                               ; preds = %10
  %17 = atomicrmw volatile add ptr %11, i32 1 acq_rel, align 4
  br label %_ZNSt10shared_ptrIN10open_spiel6PolicyEEC2ERKS2_.exit

_ZNSt10shared_ptrIN10open_spiel6PolicyEEC2ERKS2_.exit: ; preds = %3, %13, %16
  ret void
}